Certificate:
    Data:
        Version: 3 (0x2)
        Serial Number:
            1a:04:3e:3c:63:75:ff:b4:07:1a:bb:71:2a:a1:ec:38
        Signature Algorithm: sha384WithRSAEncryption
        Issuer: CN=MF VPN Root CA
        Validity
            Not Before: Jan 26 13:46:30 2020 GMT
            Not After : Jan  1 13:46:30 2120 GMT
        Subject: CN=MF VPN Site2Site CA
        Subject Public Key Info:
            Public Key Algorithm: rsaEncryption
                RSA Public-Key: (4096 bit)
                Modulus:
                    00:cb:5b:8e:8e:4b:a6:49:f3:12:9c:61:c3:5d:66:
                    b0:3c:76:d8:91:02:bd:38:31:21:2b:91:db:68:d3:
                    60:41:f5:62:8a:87:30:a7:e3:a5:8e:eb:27:eb:5d:
                    82:e0:e0:cf:e4:6d:47:c6:71:16:31:d5:7d:ad:ce:
                    c1:0c:8a:ed:c7:74:6f:94:b5:1a:ed:ca:87:9a:e4:
                    12:3b:6c:fe:fa:d4:1f:a7:e6:96:73:97:05:6b:0e:
                    b8:70:09:8b:d5:e4:c9:b0:73:c3:df:82:70:8e:56:
                    42:2c:61:02:db:d4:d1:f1:76:10:d0:c7:2b:4f:84:
                    fe:98:6b:a2:ed:cf:c0:94:5d:0e:d6:84:b8:85:a8:
                    4b:1c:43:5e:c2:3f:08:2e:ec:1b:67:bd:fe:06:f2:
                    5d:e1:ec:d6:d1:0f:d6:c1:a6:56:64:d3:70:f6:ef:
                    69:f4:71:59:a2:2e:3c:58:37:98:3f:13:03:70:2e:
                    74:9d:49:0f:3d:31:10:fc:77:ff:45:88:e0:eb:f2:
                    28:12:e0:14:92:5b:d5:d3:5c:52:94:bb:b7:28:64:
                    65:95:62:d0:84:70:bc:86:b4:5b:10:88:61:fe:32:
                    65:df:a7:bb:f3:16:68:13:6d:13:1c:ac:fd:5e:d6:
                    23:2b:48:d0:e5:0c:99:9f:a4:25:43:10:54:db:bc:
                    05:19:e0:d9:55:c2:76:ae:05:17:3d:7b:05:5b:43:
                    7c:f7:ba:31:21:80:0e:ab:2d:0b:54:e4:87:42:29:
                    ee:1a:76:76:44:ed:e3:6e:ea:0c:f6:8f:ea:a5:94:
                    92:cc:d2:98:ea:ac:7e:e1:e1:0a:e9:1d:76:bb:91:
                    55:84:ec:7c:fb:7f:58:84:e8:50:29:d3:82:9a:b9:
                    b5:a8:1e:00:b2:ef:67:fb:c7:f7:b0:23:51:d9:0a:
                    20:68:20:ec:23:50:fc:92:e9:db:3c:61:d6:17:2f:
                    41:28:ae:3c:02:ff:d8:ba:0b:63:17:06:a8:d7:44:
                    c0:9c:1c:9c:65:a4:09:ac:fa:2a:1b:f8:7f:c9:cc:
                    b0:9b:b3:29:01:02:c3:c2:eb:b3:7c:c3:ab:fc:08:
                    dd:43:66:29:85:dd:cc:d1:2b:92:bd:1e:23:f8:cc:
                    cd:c8:53:cc:15:42:53:66:72:8f:3b:8b:ce:81:06:
                    d3:bf:90:e6:1f:ea:84:4d:73:dc:50:7b:2d:9c:65:
                    3b:a9:88:52:67:b3:14:49:5c:17:25:68:f2:80:dd:
                    a6:37:aa:14:5a:a5:4a:91:10:75:2e:fa:34:e4:a9:
                    69:8e:56:9e:2b:b5:3e:72:27:b4:bf:dc:c0:8a:c4:
                    77:af:b2:f2:eb:9d:4b:17:58:29:ea:32:59:b1:e1:
                    a9:c1:a7
                Exponent: 65537 (0x10001)
        X509v3 extensions:
            Authority Information Access: 
                CA Issuers - URI:http://pki.maxf.dev/mf_vpn_root.pem

            X509v3 CRL Distribution Points: 

                Full Name:
                  URI:http://pki.maxf.dev/mf_vpn_root.crl

            X509v3 Basic Constraints: 
                CA:TRUE
            X509v3 Subject Key Identifier: 
                31:6B:AE:07:68:5B:FB:E1:2D:3D:8C:08:ED:75:D7:39:83:BF:EB:38
            X509v3 Authority Key Identifier: 
                keyid:F6:4F:3C:BC:70:8F:0F:8D:A5:EB:C4:D7:0C:21:FB:8C:0E:A7:C3:2E
                DirName:/CN=MF VPN Root CA
                serial:1E:80:51:C8:4A:12:4D:40:11:53:64:D9:BE:AD:34:33:12:91:B4:5B

            X509v3 Key Usage: 
                Certificate Sign, CRL Sign
    Signature Algorithm: sha384WithRSAEncryption
         5b:1a:42:12:f2:fb:9e:88:74:2d:7c:99:e5:be:29:f3:2d:ca:
         be:12:0b:f8:77:7a:c6:1a:be:68:5d:79:2e:30:ef:a8:f0:53:
         7c:ee:da:ac:81:86:4f:f3:2b:b0:34:0c:12:01:d2:cb:05:7f:
         84:08:a6:88:b4:b0:45:85:47:bc:b9:29:da:02:0b:34:fb:d8:
         ec:a0:41:5d:eb:9f:cb:82:e0:dd:25:14:4b:a0:a7:0f:72:cd:
         59:4c:06:7c:41:a8:1b:2b:cd:66:5b:36:44:79:46:54:e7:28:
         4e:04:d8:05:74:9c:19:9c:62:19:45:3e:24:d8:07:28:52:cf:
         a4:0a:83:2f:79:42:f4:75:9c:08:9f:b5:35:da:1e:3f:b0:c4:
         cb:94:97:38:46:d4:43:99:4b:32:ca:cd:a3:cd:45:0d:cf:1e:
         3d:a3:86:b8:da:7f:68:4e:7b:19:83:24:20:7e:f8:86:94:3a:
         54:a8:e5:b5:2f:ae:93:52:cc:d0:75:a5:4d:c0:bc:89:6d:f9:
         11:50:2c:20:c7:de:7e:1a:f3:34:0b:a9:87:04:c6:2c:d3:5b:
         87:77:48:6d:9d:10:3d:09:05:64:67:4b:6d:ec:05:f9:12:6d:
         07:4f:ce:35:95:bf:97:6b:d9:46:a4:4f:b1:67:ea:d0:ca:e9:
         9f:a5:e2:23:18:d7:b9:f7:01:a1:20:4a:54:04:c8:fe:6b:37:
         03:85:c0:9e:43:f4:4a:f5:e8:39:9c:91:e0:3e:03:47:01:6e:
         64:c6:f4:cf:80:b8:ca:26:db:1d:9c:98:47:ec:42:64:15:52:
         6e:aa:db:1c:27:58:30:67:c2:02:8f:d9:32:20:15:2b:fb:53:
         2e:4c:82:0d:5e:2a:a0:c3:c7:0a:da:c0:c7:43:37:2b:a4:4d:
         67:5f:80:ce:97:c5:c9:7a:9a:00:9c:9d:3e:22:96:00:1e:c2:
         34:95:08:fd:c5:09:af:10:aa:53:d9:9d:44:5b:cc:cf:e7:66:
         22:d2:f3:73:3d:8d:e4:61:60:d0:a6:63:1a:5a:af:70:0e:4a:
         e0:5b:db:00:a1:18:5a:03:ea:72:8c:fe:85:e4:e3:08:24:ec:
         8f:0e:7c:9c:74:fe:24:85:b2:ee:50:79:bf:d8:45:d0:67:ea:
         9d:a2:01:51:6d:da:cd:7b:62:cc:6b:7f:33:61:d0:fb:0e:95:
         e4:7e:68:d0:da:9d:eb:39:6d:d5:53:12:43:a4:c4:a1:e5:fc:
         34:14:22:d6:4c:b4:5d:8f:8b:d5:b9:bc:86:c2:09:58:c9:bb:
         d2:13:9f:b0:f3:5a:5f:2e:8a:54:a5:3a:9e:7f:ea:1f:07:0b:
         14:05:af:32:cb:ac:c0:47
-----BEGIN CERTIFICATE-----
MIIF0DCCA7igAwIBAgIQGgQ+PGN1/7QHGrtxKqHsODANBgkqhkiG9w0BAQwFADAZ
MRcwFQYDVQQDDA5NRiBWUE4gUm9vdCBDQTAgFw0yMDAxMjYxMzQ2MzBaGA8yMTIw
MDEwMTEzNDYzMFowHjEcMBoGA1UEAwwTTUYgVlBOIFNpdGUyU2l0ZSBDQTCCAiIw
DQYJKoZIhvcNAQEBBQADggIPADCCAgoCggIBAMtbjo5LpknzEpxhw11msDx22JEC
vTgxISuR22jTYEH1YoqHMKfjpY7rJ+tdguDgz+RtR8ZxFjHVfa3OwQyK7cd0b5S1
Gu3Kh5rkEjts/vrUH6fmlnOXBWsOuHAJi9XkybBzw9+CcI5WQixhAtvU0fF2ENDH
K0+E/phrou3PwJRdDtaEuIWoSxxDXsI/CC7sG2e9/gbyXeHs1tEP1sGmVmTTcPbv
afRxWaIuPFg3mD8TA3AudJ1JDz0xEPx3/0WI4OvyKBLgFJJb1dNcUpS7tyhkZZVi
0IRwvIa0WxCIYf4yZd+nu/MWaBNtExys/V7WIytI0OUMmZ+kJUMQVNu8BRng2VXC
dq4FFz17BVtDfPe6MSGADqstC1Tkh0Ip7hp2dkTt427qDPaP6qWUkszSmOqsfuHh
CukddruRVYTsfPt/WIToUCnTgpq5tageALLvZ/vH97AjUdkKIGgg7CNQ/JLp2zxh
1hcvQSiuPAL/2LoLYxcGqNdEwJwcnGWkCaz6Khv4f8nMsJuzKQECw8Lrs3zDq/wI
3UNmKYXdzNErkr0eI/jMzchTzBVCU2ZyjzuLzoEG07+Q5h/qhE1z3FB7LZxlO6mI
UmezFElcFyVo8oDdpjeqFFqlSpEQdS76NOSpaY5Wniu1PnIntL/cwIrEd6+y8uud
SxdYKeoyWbHhqcGnAgMBAAGjggELMIIBBzA/BggrBgEFBQcBAQQzMDEwLwYIKwYB
BQUHMAKGI2h0dHA6Ly9wa2kubWF4Zi5kZXYvbWZfdnBuX3Jvb3QucGVtMDQGA1Ud
HwQtMCswKaAnoCWGI2h0dHA6Ly9wa2kubWF4Zi5kZXYvbWZfdnBuX3Jvb3QuY3Js
MAwGA1UdEwQFMAMBAf8wHQYDVR0OBBYEFDFrrgdoW/vhLT2MCO111zmDv+s4MFQG
A1UdIwRNMEuAFPZPPLxwjw+NpevE1wwh+4wOp8MuoR2kGzAZMRcwFQYDVQQDDA5N
RiBWUE4gUm9vdCBDQYIUHoBRyEoSTUARU2TZvq00MxKRtFswCwYDVR0PBAQDAgEG
MA0GCSqGSIb3DQEBDAUAA4ICAQBbGkIS8vueiHQtfJnlvinzLcq+Egv4d3rGGr5o
XXkuMO+o8FN87tqsgYZP8yuwNAwSAdLLBX+ECKaItLBFhUe8uSnaAgs0+9jsoEFd
65/LguDdJRRLoKcPcs1ZTAZ8QagbK81mWzZEeUZU5yhOBNgFdJwZnGIZRT4k2Aco
Us+kCoMveUL0dZwIn7U12h4/sMTLlJc4RtRDmUsyys2jzUUNzx49o4a42n9oTnsZ
gyQgfviGlDpUqOW1L66TUszQdaVNwLyJbfkRUCwgx95+GvM0C6mHBMYs01uHd0ht
nRA9CQVkZ0tt7AX5Em0HT841lb+Xa9lGpE+xZ+rQyumfpeIjGNe59wGhIEpUBMj+
azcDhcCeQ/RK9eg5nJHgPgNHAW5kxvTPgLjKJtsdnJhH7EJkFVJuqtscJ1gwZ8IC
j9kyIBUr+1MuTIINXiqgw8cK2sDHQzcrpE1nX4DOl8XJepoAnJ0+IpYAHsI0lQj9
xQmvEKpT2Z1EW8zP52Yi0vNzPY3kYWDQpmMaWq9wDkrgW9sAoRhaA+pyjP6F5OMI
JOyPDnycdP4khbLuUHm/2EXQZ+qdogFRbdrNe2LMa38zYdD7DpXkfmjQ2p3rOW3V
UxJDpMSh5fw0FCLWTLRdj4vVubyGwglYybvSE5+w81pfLopUpTqef+ofBwsUBa8y
y6zARw==
-----END CERTIFICATE-----
