Certificate:
    Data:
        Version: 3 (0x2)
        Serial Number:
            11:81:da:dd:f8:78:45:b8:64:66:e3:bc:e4:78:9a:be
        Signature Algorithm: sha384WithRSAEncryption
        Issuer: CN=Easy-RSA CA
        Validity
            Not Before: Jan 26 10:34:52 2020 GMT
            Not After : Jan  1 10:34:52 2120 GMT
        Subject: CN=MF VPN rou-zh Client CA
        Subject Public Key Info:
            Public Key Algorithm: rsaEncryption
                RSA Public-Key: (2048 bit)
                Modulus:
                    00:a1:06:a2:53:a4:c2:2c:d1:23:d4:7e:23:39:22:
                    47:5f:0e:93:86:a0:06:65:42:cd:0c:46:ed:0b:44:
                    bc:77:86:b1:ff:3b:61:04:5d:25:11:8c:2b:f6:4e:
                    09:e3:bd:6a:bc:c5:8a:27:9b:2b:27:cc:12:f0:5c:
                    93:54:61:d6:b6:4b:d6:7a:16:8b:a8:10:77:4b:c5:
                    80:9f:b5:b8:98:96:0a:91:a4:54:6c:4b:a3:51:b3:
                    a6:a2:21:4a:5b:2d:57:bc:3c:5e:ca:92:cf:18:69:
                    ce:94:21:a9:79:6e:01:87:0e:73:51:51:13:22:94:
                    32:5f:41:55:dd:d5:fd:77:fd:c6:68:2f:a3:99:e7:
                    51:73:7d:68:68:d2:ba:8d:9f:b9:b4:e1:cb:de:eb:
                    cd:b0:e8:cd:91:75:23:ad:61:54:69:1c:e7:7f:df:
                    10:99:41:ae:8e:be:58:79:ab:1e:d3:44:8b:84:eb:
                    79:c7:16:da:01:37:c7:e7:84:ec:8e:36:51:17:f5:
                    8e:06:d5:10:c3:8a:c2:09:3a:2a:80:f0:19:22:de:
                    c3:90:ea:b2:c0:83:a0:94:77:2c:ea:b4:46:57:5f:
                    95:9e:bd:eb:d9:c8:40:36:82:00:ea:f3:f7:a0:e5:
                    66:c0:fe:a8:b6:0d:db:ff:15:31:60:0b:a6:da:92:
                    23:0f
                Exponent: 65537 (0x10001)
        X509v3 extensions:
            Authority Information Access: 
                CA Issuers - URI:http://pki.maxf.dev/mf_vpn_root.pem

            X509v3 CRL Distribution Points: 

                Full Name:
                  URI:http://pki.maxf.dev/mf_vpn_root.crl

            X509v3 Basic Constraints: 
                CA:TRUE
            X509v3 Subject Key Identifier: 
                6A:99:CD:54:C1:9E:1A:27:91:28:1E:6B:01:F9:A3:A4:55:A6:EE:55
            X509v3 Authority Key Identifier: 
                keyid:5B:AC:AC:4C:B8:15:13:84:1A:CB:84:F7:32:EB:73:C7:78:EE:EA:A1
                DirName:/CN=Easy-RSA CA
                serial:07:6F:55:E7:A2:17:DF:E8:19:75:4D:BE:06:20:6C:A8:31:9C:95:E2

            X509v3 Key Usage: 
                Certificate Sign, CRL Sign
    Signature Algorithm: sha384WithRSAEncryption
         0f:8f:72:5d:92:fa:d7:ae:09:ee:f1:83:5f:ef:28:cb:c7:aa:
         4b:47:c7:78:b0:80:c8:86:77:31:79:85:c1:24:68:55:f1:04:
         94:f2:20:10:fa:87:3e:dc:6b:bc:3e:a4:27:e1:85:54:23:30:
         f4:3d:b0:7d:97:80:c5:55:30:eb:7a:53:8f:02:2d:1b:bf:f2:
         fd:0e:44:34:3b:d9:cf:b6:db:10:d6:fc:cc:a9:a8:57:00:33:
         2a:a5:07:3c:59:7b:e5:fe:55:2f:ad:ab:fe:b1:a2:cb:50:d6:
         d0:f7:09:68:e7:cf:2e:8d:3c:fd:5e:cc:cf:bb:97:77:04:85:
         42:0a:7b:ff:00:58:62:dc:e5:17:be:39:21:f3:f0:3f:ce:20:
         89:41:12:4c:72:83:c2:64:29:e1:11:8e:b6:b2:36:60:d5:72:
         e0:1f:fa:7a:3b:77:6d:f2:08:2c:d8:c8:56:9a:7c:76:a0:0a:
         ad:05:20:e6:0f:53:0d:c9:4e:76:b4:41:22:a5:ec:51:43:bf:
         00:52:b3:45:4d:fd:68:70:c8:e9:75:65:63:c2:5d:da:ee:98:
         ca:ce:78:63:6a:fe:b1:dc:72:d5:21:b5:16:09:64:ef:44:6b:
         b3:31:f1:c0:4c:c7:db:34:52:75:f0:3e:d7:5f:b6:ba:2a:3a:
         51:52:f5:0d
-----BEGIN CERTIFICATE-----
MIIDzjCCAragAwIBAgIQEYHa3fh4RbhkZuO85HiavjANBgkqhkiG9w0BAQwFADAW
MRQwEgYDVQQDDAtFYXN5LVJTQSBDQTAgFw0yMDAxMjYxMDM0NTJaGA8yMTIwMDEw
MTEwMzQ1MlowIjEgMB4GA1UEAwwXTUYgVlBOIHJvdS16aCBDbGllbnQgQ0EwggEi
MA0GCSqGSIb3DQEBAQUAA4IBDwAwggEKAoIBAQChBqJTpMIs0SPUfiM5IkdfDpOG
oAZlQs0MRu0LRLx3hrH/O2EEXSURjCv2TgnjvWq8xYonmysnzBLwXJNUYda2S9Z6
FouoEHdLxYCftbiYlgqRpFRsS6NRs6aiIUpbLVe8PF7Kks8Yac6UIal5bgGHDnNR
URMilDJfQVXd1f13/cZoL6OZ51FzfWho0rqNn7m04cve682w6M2RdSOtYVRpHOd/
3xCZQa6Ovlh5qx7TRIuE63nHFtoBN8fnhOyONlEX9Y4G1RDDisIJOiqA8Bki3sOQ
6rLAg6CUdyzqtEZXX5WevevZyEA2ggDq8/eg5WbA/qi2Ddv/FTFgC6bakiMPAgMB
AAGjggEIMIIBBDA/BggrBgEFBQcBAQQzMDEwLwYIKwYBBQUHMAKGI2h0dHA6Ly9w
a2kubWF4Zi5kZXYvbWZfdnBuX3Jvb3QucGVtMDQGA1UdHwQtMCswKaAnoCWGI2h0
dHA6Ly9wa2kubWF4Zi5kZXYvbWZfdnBuX3Jvb3QuY3JsMAwGA1UdEwQFMAMBAf8w
HQYDVR0OBBYEFGqZzVTBnhonkSgeawH5o6RVpu5VMFEGA1UdIwRKMEiAFFusrEy4
FROEGsuE9zLrc8d47uqhoRqkGDAWMRQwEgYDVQQDDAtFYXN5LVJTQSBDQYIUB29V
56IX3+gZdU2+BiBsqDGcleIwCwYDVR0PBAQDAgEGMA0GCSqGSIb3DQEBDAUAA4IB
AQAPj3JdkvrXrgnu8YNf7yjLx6pLR8d4sIDIhncxeYXBJGhV8QSU8iAQ+oc+3Gu8
PqQn4YVUIzD0PbB9l4DFVTDrelOPAi0bv/L9DkQ0O9nPttsQ1vzMqahXADMqpQc8
WXvl/lUvrav+saLLUNbQ9wlo588ujTz9XszPu5d3BIVCCnv/AFhi3OUXvjkh8/A/
ziCJQRJMcoPCZCnhEY62sjZg1XLgH/p6O3dt8ggs2MhWmnx2oAqtBSDmD1MNyU52
tEEipexRQ78AUrNFTf1ocMjpdWVjwl3a7pjKznhjav6x3HLVIbUWCWTvRGuzMfHA
TMfbNFJ18D7XX7a6KjpRUvUN
-----END CERTIFICATE-----
