Certificate:
    Data:
        Version: 3 (0x2)
        Serial Number:
            02:70:d8:bb:e0:e9:67:54:42:8d:e4:c4:11:ab:f1:3d
        Signature Algorithm: sha384WithRSAEncryption
        Issuer: CN=Easy-RSA CA
        Validity
            Not Before: Jan 26 10:46:36 2020 GMT
            Not After : Jan  1 10:46:36 2120 GMT
        Subject: CN=MF VPN Medebach Admin CA
        Subject Public Key Info:
            Public Key Algorithm: rsaEncryption
                RSA Public-Key: (2048 bit)
                Modulus:
                    00:b4:b6:a0:2f:d2:c8:da:c1:c2:de:31:f7:c6:69:
                    85:7b:8e:ce:87:7d:c1:3a:69:46:46:b1:7d:d3:36:
                    7f:b8:9b:99:08:13:e7:c7:3d:3b:f5:f1:67:f1:81:
                    dd:46:8f:16:26:bd:9f:0b:a0:78:5c:ff:cc:91:08:
                    bc:5a:fc:1f:94:ae:98:90:af:6d:58:a2:b3:84:57:
                    84:8d:a5:8e:53:5b:10:a4:8b:00:d1:cb:71:fa:19:
                    f3:65:1b:a9:33:8e:ac:63:cc:2d:ef:8c:f9:9a:c5:
                    07:de:da:2d:ba:85:13:19:db:d3:48:51:dd:a2:36:
                    73:19:78:2a:47:cc:2a:2a:28:d7:b0:68:83:9d:84:
                    b4:3c:c6:32:06:d0:59:83:bf:5e:74:b2:f4:bb:a2:
                    33:72:95:15:42:53:cb:2a:9e:30:ff:44:ed:b7:48:
                    ec:13:a0:f0:b7:55:26:18:5c:b2:59:d7:a5:e8:ca:
                    40:63:3d:64:0c:62:27:cf:ec:52:45:cf:1f:f6:b9:
                    3d:99:d4:37:3c:c1:62:fc:54:cd:4a:36:50:66:92:
                    02:e6:d2:e5:b1:51:22:ff:88:af:3f:af:15:0c:22:
                    33:0b:f6:04:bc:e9:5d:79:33:2c:e8:bd:87:84:85:
                    8f:53:bd:d8:c2:62:61:a7:04:e7:d7:92:2e:7e:6e:
                    fe:2f
                Exponent: 65537 (0x10001)
        X509v3 extensions:
            Authority Information Access: 
                CA Issuers - URI:http://pki.maxf.dev/mf_vpn_root.pem

            X509v3 CRL Distribution Points: 

                Full Name:
                  URI:http://pki.maxf.dev/mf_vpn_root.crl

            X509v3 Basic Constraints: 
                CA:TRUE
            X509v3 Subject Key Identifier: 
                D4:F0:22:A7:17:5D:63:A0:63:DD:F8:C9:DC:5F:A8:F3:6A:03:A2:7D
            X509v3 Authority Key Identifier: 
                keyid:5B:AC:AC:4C:B8:15:13:84:1A:CB:84:F7:32:EB:73:C7:78:EE:EA:A1
                DirName:/CN=Easy-RSA CA
                serial:07:6F:55:E7:A2:17:DF:E8:19:75:4D:BE:06:20:6C:A8:31:9C:95:E2

            X509v3 Key Usage: 
                Certificate Sign, CRL Sign
    Signature Algorithm: sha384WithRSAEncryption
         93:11:1a:43:e9:5a:8e:a1:94:d4:b3:ba:45:b1:ad:ce:13:40:
         80:e4:1b:cd:39:7b:71:19:20:c9:aa:55:fd:8f:ac:5e:36:30:
         b8:61:7b:61:45:a4:7a:8d:96:b8:bb:24:0a:63:5e:ae:79:28:
         86:e7:2c:3a:b5:0c:c0:d2:4e:9b:1d:e1:49:d3:8e:b3:de:59:
         dc:f1:5d:f3:b1:14:e0:2f:1f:5c:7e:9c:0a:f7:7c:05:ed:82:
         de:db:9b:b6:a0:4e:f5:d4:12:c2:17:e4:06:26:b9:35:20:c4:
         c3:c8:08:0a:06:d1:32:48:25:19:d4:39:9d:97:34:68:b0:3b:
         60:88:dd:1e:02:9f:54:d2:d0:5b:81:ff:3f:fb:e9:82:29:d9:
         99:90:15:9c:fd:21:12:b5:b4:2b:dc:e0:08:d7:bf:85:f6:21:
         20:f8:cf:d4:25:eb:8b:a1:fd:0b:62:8c:13:ee:92:fa:3f:28:
         97:96:c7:2f:d7:e8:ca:42:23:26:37:1d:66:d9:03:8d:c8:52:
         b9:0a:56:a0:19:01:7f:25:cd:d2:71:61:b0:60:0a:35:1f:c3:
         c2:6e:a8:7b:d4:6d:20:05:01:2f:d6:b7:12:66:0e:74:7f:63:
         61:65:2d:21:a0:95:63:19:9f:9a:50:9c:41:4e:2b:8f:a3:94:
         c1:b5:7b:b4
-----BEGIN CERTIFICATE-----
MIIDzzCCAregAwIBAgIQAnDYu+DpZ1RCjeTEEavxPTANBgkqhkiG9w0BAQwFADAW
MRQwEgYDVQQDDAtFYXN5LVJTQSBDQTAgFw0yMDAxMjYxMDQ2MzZaGA8yMTIwMDEw
MTEwNDYzNlowIzEhMB8GA1UEAwwYTUYgVlBOIE1lZGViYWNoIEFkbWluIENBMIIB
IjANBgkqhkiG9w0BAQEFAAOCAQ8AMIIBCgKCAQEAtLagL9LI2sHC3jH3xmmFe47O
h33BOmlGRrF90zZ/uJuZCBPnxz079fFn8YHdRo8WJr2fC6B4XP/MkQi8WvwflK6Y
kK9tWKKzhFeEjaWOU1sQpIsA0ctx+hnzZRupM46sY8wt74z5msUH3totuoUTGdvT
SFHdojZzGXgqR8wqKijXsGiDnYS0PMYyBtBZg79edLL0u6IzcpUVQlPLKp4w/0Tt
t0jsE6Dwt1UmGFyyWdel6MpAYz1kDGInz+xSRc8f9rk9mdQ3PMFi/FTNSjZQZpIC
5tLlsVEi/4ivP68VDCIzC/YEvOldeTMs6L2HhIWPU73YwmJhpwTn15Iufm7+LwID
AQABo4IBCDCCAQQwPwYIKwYBBQUHAQEEMzAxMC8GCCsGAQUFBzAChiNodHRwOi8v
cGtpLm1heGYuZGV2L21mX3Zwbl9yb290LnBlbTA0BgNVHR8ELTArMCmgJ6AlhiNo
dHRwOi8vcGtpLm1heGYuZGV2L21mX3Zwbl9yb290LmNybDAMBgNVHRMEBTADAQH/
MB0GA1UdDgQWBBTU8CKnF11joGPd+MncX6jzagOifTBRBgNVHSMESjBIgBRbrKxM
uBUThBrLhPcy63PHeO7qoaEapBgwFjEUMBIGA1UEAwwLRWFzeS1SU0EgQ0GCFAdv
VeeiF9/oGXVNvgYgbKgxnJXiMAsGA1UdDwQEAwIBBjANBgkqhkiG9w0BAQwFAAOC
AQEAkxEaQ+lajqGU1LO6RbGtzhNAgOQbzTl7cRkgyapV/Y+sXjYwuGF7YUWkeo2W
uLskCmNernkohucsOrUMwNJOmx3hSdOOs95Z3PFd87EU4C8fXH6cCvd8Be2C3tub
tqBO9dQSwhfkBia5NSDEw8gICgbRMkglGdQ5nZc0aLA7YIjdHgKfVNLQW4H/P/vp
ginZmZAVnP0hErW0K9zgCNe/hfYhIPjP1CXri6H9C2KME+6S+j8ol5bHL9foykIj
JjcdZtkDjchSuQpWoBkBfyXN0nFhsGAKNR/Dwm6oe9RtIAUBL9a3EmYOdH9jYWUt
IaCVYxmfmlCcQU4rj6OUwbV7tA==
-----END CERTIFICATE-----
