Certificate:
    Data:
        Version: 3 (0x2)
        Serial Number:
            69:8a:59:82:23:b4:75:1f:a2:a8:b0:8d:60:f4:0f:37
        Signature Algorithm: sha384WithRSAEncryption
        Issuer: CN=MF VPN Root CA
        Validity
            Not Before: Jan 26 13:46:05 2020 GMT
            Not After : Jan  1 13:46:05 2120 GMT
        Subject: CN=MF VPN rou-zh CA
        Subject Public Key Info:
            Public Key Algorithm: rsaEncryption
                RSA Public-Key: (4096 bit)
                Modulus:
                    00:cd:9c:f6:06:49:76:b0:ad:7a:3d:c6:a9:0c:e3:
                    a4:4b:7f:01:5e:a1:3e:29:cc:29:8b:a9:c1:c3:23:
                    8e:3a:98:90:38:68:c2:aa:21:35:5a:07:88:bf:79:
                    40:a7:09:0a:cc:ca:f0:94:1d:2a:75:aa:39:cc:bf:
                    8d:4a:5c:50:7f:44:d7:1a:89:87:2b:97:88:42:67:
                    50:72:fa:53:e6:99:45:9d:77:e2:7d:b1:17:33:25:
                    ff:00:c7:51:56:b0:ce:6c:2e:73:c3:6c:f2:32:a9:
                    26:c6:52:9d:7f:e7:36:e7:fa:eb:f6:6a:11:52:5f:
                    d0:9c:3c:eb:aa:9b:42:61:8f:8b:2c:2a:2c:f5:a1:
                    e1:0d:dc:fa:59:65:63:aa:38:c4:1d:26:7e:a4:a4:
                    5c:ca:f3:85:62:54:17:83:f5:d9:10:55:c5:a6:7c:
                    33:aa:4c:5b:91:ac:77:87:62:2e:01:a6:0a:71:1f:
                    f9:d8:6b:19:c9:28:c8:17:b1:ef:10:3d:57:00:89:
                    a9:cc:58:c1:62:96:dd:3e:73:a1:04:41:d1:ef:3d:
                    cd:21:ad:a0:d5:41:b4:be:13:f4:0a:ea:0e:52:1b:
                    4b:2f:f4:dd:5c:13:82:af:13:87:01:00:c3:a6:f1:
                    04:27:2b:a6:5b:91:1d:51:99:3d:48:a4:e1:34:b8:
                    de:a5:3c:9a:fb:62:e3:7f:f1:c6:80:94:8b:be:54:
                    dd:89:2e:d2:d8:6b:16:04:b5:bd:aa:24:9c:f6:ed:
                    53:f9:e9:99:52:93:e0:72:e0:9a:e2:9e:06:48:bc:
                    b0:55:a0:de:fe:26:0c:92:e6:a3:02:d1:41:e0:0c:
                    a2:a9:52:51:98:12:13:c0:9b:2c:c6:c1:1e:cd:ac:
                    3e:64:95:1c:4e:a6:59:23:73:83:3a:46:40:74:c8:
                    95:8c:72:f0:a6:00:f0:83:9b:55:35:45:51:d5:03:
                    85:22:42:6c:43:bb:1c:64:14:2a:76:95:ff:62:13:
                    0a:24:e7:72:7a:c8:6c:21:f7:ed:d2:9c:ee:94:a9:
                    0f:32:9f:b8:af:f8:22:b6:ac:ba:3a:07:e6:39:b5:
                    91:2b:fc:93:b1:9c:7d:7a:6b:e3:fe:2d:00:30:15:
                    26:d1:f2:5b:6f:8f:b6:a3:a4:26:49:df:e7:9c:e3:
                    d5:48:80:12:54:e9:ca:cc:a6:35:ea:37:31:ab:73:
                    60:cb:38:a3:c6:59:0f:e6:eb:39:18:cf:11:4b:e8:
                    9a:6a:b7:21:d0:ab:b4:50:1a:0d:8c:b3:41:52:c0:
                    50:df:00:2e:f8:91:33:fc:18:eb:69:e0:b4:29:a8:
                    55:d3:02:2b:17:e6:b0:98:21:18:15:f6:8e:29:c1:
                    77:a3:19
                Exponent: 65537 (0x10001)
        X509v3 extensions:
            Authority Information Access: 
                CA Issuers - URI:http://pki.maxf.dev/mf_vpn_root.pem

            X509v3 CRL Distribution Points: 

                Full Name:
                  URI:http://pki.maxf.dev/mf_vpn_root.crl

            X509v3 Basic Constraints: 
                CA:TRUE
            X509v3 Subject Key Identifier: 
                2D:CB:A4:73:A1:08:03:9A:AF:4E:6F:10:9A:4A:89:00:43:DF:C4:86
            X509v3 Authority Key Identifier: 
                keyid:F6:4F:3C:BC:70:8F:0F:8D:A5:EB:C4:D7:0C:21:FB:8C:0E:A7:C3:2E
                DirName:/CN=MF VPN Root CA
                serial:1E:80:51:C8:4A:12:4D:40:11:53:64:D9:BE:AD:34:33:12:91:B4:5B

            X509v3 Key Usage: 
                Certificate Sign, CRL Sign
    Signature Algorithm: sha384WithRSAEncryption
         a8:0a:d2:57:49:c2:e2:b3:bf:a9:8d:9a:63:e0:2b:31:63:e3:
         17:33:37:71:2a:d0:65:85:2d:c8:56:02:a0:6b:fe:0b:0f:4a:
         7e:19:ca:36:5c:d9:7f:14:c4:0a:32:24:06:5e:44:d5:76:ce:
         dc:6f:71:2a:e5:08:76:c4:ae:79:eb:a9:ab:5b:ea:1b:4c:7d:
         59:54:08:4e:71:44:4b:d3:df:1d:7f:41:b0:99:9a:c4:2b:94:
         44:ec:46:c8:70:5c:7d:1f:f7:63:c1:14:a2:17:9c:12:6d:e8:
         00:68:8f:68:5a:2b:ae:cc:66:bd:db:30:71:14:cf:81:d2:df:
         90:1e:5f:29:9d:d3:11:22:57:d7:9f:6e:02:79:47:5e:64:4e:
         a9:49:d6:e4:26:6b:07:e5:3e:6e:c0:4f:eb:b6:7e:82:ea:f8:
         69:48:41:48:1b:59:02:a3:c7:b2:7d:8b:0e:34:bf:e6:91:ed:
         88:ad:97:9d:63:e1:a2:77:be:a3:d7:70:62:35:16:93:1d:78:
         ee:fc:c0:16:90:10:ed:15:e6:0b:b5:11:34:d3:1b:57:e6:d6:
         54:7d:34:41:68:08:82:10:9f:95:72:01:b6:bf:c7:67:50:e4:
         3c:36:6c:c7:b3:3b:eb:b2:d9:ee:a7:97:6c:15:a2:8f:74:34:
         75:9b:87:e9:8f:08:85:dd:70:3e:d8:78:64:d7:21:56:4f:b9:
         bd:e1:38:7f:25:b4:3e:65:fd:36:d9:4b:ac:d9:01:d4:89:d8:
         db:ec:4f:66:9b:5e:d4:61:05:ab:a9:57:21:f6:31:47:46:8f:
         0c:23:31:5b:e6:7f:95:1c:ab:28:79:3e:59:b8:a7:e4:5d:4a:
         65:5d:9b:d1:34:e0:15:a1:ee:bc:05:73:1f:0c:68:84:a5:5a:
         e6:a5:08:40:e2:cc:3c:26:33:87:93:f1:f6:3c:6a:f4:bd:95:
         53:81:77:c4:72:e4:7d:9a:8d:99:37:91:6b:75:83:46:ba:5b:
         3d:9e:ee:ff:c1:3c:03:63:f7:36:79:d4:ce:0e:a2:99:4d:8f:
         58:18:4d:87:5d:64:80:eb:66:f0:87:13:e1:de:3d:a1:52:1f:
         ea:3a:c6:73:bd:cb:21:9b:b5:57:d7:49:2c:40:73:99:4e:0e:
         47:e4:fc:cc:76:04:84:ea:c0:5e:88:93:b9:9a:bc:79:b9:2b:
         31:6e:32:a3:4f:3f:24:cf:9d:e8:41:ad:4d:9e:41:9a:bb:29:
         90:77:85:f8:13:9f:15:f0:2f:73:10:77:ea:6b:cd:39:95:3f:
         9d:2a:66:43:3e:a4:b0:32:61:fd:5f:4d:3c:fb:87:22:35:85:
         14:46:27:12:dd:f3:94:2f
-----BEGIN CERTIFICATE-----
MIIFzTCCA7WgAwIBAgIQaYpZgiO0dR+iqLCNYPQPNzANBgkqhkiG9w0BAQwFADAZ
MRcwFQYDVQQDDA5NRiBWUE4gUm9vdCBDQTAgFw0yMDAxMjYxMzQ2MDVaGA8yMTIw
MDEwMTEzNDYwNVowGzEZMBcGA1UEAwwQTUYgVlBOIHJvdS16aCBDQTCCAiIwDQYJ
KoZIhvcNAQEBBQADggIPADCCAgoCggIBAM2c9gZJdrCtej3GqQzjpEt/AV6hPinM
KYupwcMjjjqYkDhowqohNVoHiL95QKcJCszK8JQdKnWqOcy/jUpcUH9E1xqJhyuX
iEJnUHL6U+aZRZ134n2xFzMl/wDHUVawzmwuc8Ns8jKpJsZSnX/nNuf66/ZqEVJf
0Jw866qbQmGPiywqLPWh4Q3c+lllY6o4xB0mfqSkXMrzhWJUF4P12RBVxaZ8M6pM
W5Gsd4diLgGmCnEf+dhrGckoyBex7xA9VwCJqcxYwWKW3T5zoQRB0e89zSGtoNVB
tL4T9ArqDlIbSy/03VwTgq8ThwEAw6bxBCcrpluRHVGZPUik4TS43qU8mvti43/x
xoCUi75U3Yku0thrFgS1vaoknPbtU/npmVKT4HLgmuKeBki8sFWg3v4mDJLmowLR
QeAMoqlSUZgSE8CbLMbBHs2sPmSVHE6mWSNzgzpGQHTIlYxy8KYA8IObVTVFUdUD
hSJCbEO7HGQUKnaV/2ITCiTncnrIbCH37dKc7pSpDzKfuK/4IrasujoH5jm1kSv8
k7GcfXpr4/4tADAVJtHyW2+PtqOkJknf55zj1UiAElTpysymNeo3MatzYMs4o8ZZ
D+brORjPEUvommq3IdCrtFAaDYyzQVLAUN8ALviRM/wY62ngtCmoVdMCKxfmsJgh
GBX2jinBd6MZAgMBAAGjggELMIIBBzA/BggrBgEFBQcBAQQzMDEwLwYIKwYBBQUH
MAKGI2h0dHA6Ly9wa2kubWF4Zi5kZXYvbWZfdnBuX3Jvb3QucGVtMDQGA1UdHwQt
MCswKaAnoCWGI2h0dHA6Ly9wa2kubWF4Zi5kZXYvbWZfdnBuX3Jvb3QuY3JsMAwG
A1UdEwQFMAMBAf8wHQYDVR0OBBYEFC3LpHOhCAOar05vEJpKiQBD38SGMFQGA1Ud
IwRNMEuAFPZPPLxwjw+NpevE1wwh+4wOp8MuoR2kGzAZMRcwFQYDVQQDDA5NRiBW
UE4gUm9vdCBDQYIUHoBRyEoSTUARU2TZvq00MxKRtFswCwYDVR0PBAQDAgEGMA0G
CSqGSIb3DQEBDAUAA4ICAQCoCtJXScLis7+pjZpj4CsxY+MXMzdxKtBlhS3IVgKg
a/4LD0p+Gco2XNl/FMQKMiQGXkTVds7cb3Eq5Qh2xK5566mrW+obTH1ZVAhOcURL
098df0GwmZrEK5RE7EbIcFx9H/djwRSiF5wSbegAaI9oWiuuzGa92zBxFM+B0t+Q
Hl8pndMRIlfXn24CeUdeZE6pSdbkJmsH5T5uwE/rtn6C6vhpSEFIG1kCo8eyfYsO
NL/mke2IrZedY+Gid76j13BiNRaTHXju/MAWkBDtFeYLtRE00xtX5tZUfTRBaAiC
EJ+VcgG2v8dnUOQ8NmzHszvrstnup5dsFaKPdDR1m4fpjwiF3XA+2Hhk1yFWT7m9
4Th/JbQ+Zf022Uus2QHUidjb7E9mm17UYQWrqVch9jFHRo8MIzFb5n+VHKsoeT5Z
uKfkXUplXZvRNOAVoe68BXMfDGiEpVrmpQhA4sw8JjOHk/H2PGr0vZVTgXfEcuR9
mo2ZN5FrdYNGuls9nu7/wTwDY/c2edTODqKZTY9YGE2HXWSA62bwhxPh3j2hUh/q
OsZzvcshm7VX10ksQHOZTg5H5PzMdgSE6sBeiJO5mrx5uSsxbjKjTz8kz53oQa1N
nkGauymQd4X4E58V8C9zEHfqa805lT+dKmZDPqSwMmH9X008+4ciNYUURicS3fOU
Lw==
-----END CERTIFICATE-----
