Certificate:
    Data:
        Version: 3 (0x2)
        Serial Number:
            76:db:ce:7e:18:5e:48:fa:37:86:a8:74:5b:51:71:f4
        Signature Algorithm: sha384WithRSAEncryption
        Issuer: CN=MF VPN Root CA
        Validity
            Not Before: Jan 26 11:56:08 2020 GMT
            Not After : Jan  1 11:56:08 2120 GMT
        Subject: CN=MF VPN Medebach Admin CA
        Subject Public Key Info:
            Public Key Algorithm: rsaEncryption
                RSA Public-Key: (2048 bit)
                Modulus:
                    00:b4:b6:a0:2f:d2:c8:da:c1:c2:de:31:f7:c6:69:
                    85:7b:8e:ce:87:7d:c1:3a:69:46:46:b1:7d:d3:36:
                    7f:b8:9b:99:08:13:e7:c7:3d:3b:f5:f1:67:f1:81:
                    dd:46:8f:16:26:bd:9f:0b:a0:78:5c:ff:cc:91:08:
                    bc:5a:fc:1f:94:ae:98:90:af:6d:58:a2:b3:84:57:
                    84:8d:a5:8e:53:5b:10:a4:8b:00:d1:cb:71:fa:19:
                    f3:65:1b:a9:33:8e:ac:63:cc:2d:ef:8c:f9:9a:c5:
                    07:de:da:2d:ba:85:13:19:db:d3:48:51:dd:a2:36:
                    73:19:78:2a:47:cc:2a:2a:28:d7:b0:68:83:9d:84:
                    b4:3c:c6:32:06:d0:59:83:bf:5e:74:b2:f4:bb:a2:
                    33:72:95:15:42:53:cb:2a:9e:30:ff:44:ed:b7:48:
                    ec:13:a0:f0:b7:55:26:18:5c:b2:59:d7:a5:e8:ca:
                    40:63:3d:64:0c:62:27:cf:ec:52:45:cf:1f:f6:b9:
                    3d:99:d4:37:3c:c1:62:fc:54:cd:4a:36:50:66:92:
                    02:e6:d2:e5:b1:51:22:ff:88:af:3f:af:15:0c:22:
                    33:0b:f6:04:bc:e9:5d:79:33:2c:e8:bd:87:84:85:
                    8f:53:bd:d8:c2:62:61:a7:04:e7:d7:92:2e:7e:6e:
                    fe:2f
                Exponent: 65537 (0x10001)
        X509v3 extensions:
            Authority Information Access: 
                CA Issuers - URI:http://pki.maxf.dev/mf_vpn_root.pem

            X509v3 CRL Distribution Points: 

                Full Name:
                  URI:http://pki.maxf.dev/mf_vpn_root.crl

            X509v3 Basic Constraints: 
                CA:TRUE
            X509v3 Subject Key Identifier: 
                D4:F0:22:A7:17:5D:63:A0:63:DD:F8:C9:DC:5F:A8:F3:6A:03:A2:7D
            X509v3 Authority Key Identifier: 
                keyid:87:86:1E:E7:45:ED:2D:11:BA:EE:0E:70:B3:52:4D:E3:F1:21:EF:E8
                DirName:/CN=MF VPN Root CA
                serial:78:A7:5A:43:3C:7E:61:BA:3D:01:68:AB:22:F7:A9:CC:D2:EE:4F:07

            X509v3 Key Usage: 
                Certificate Sign, CRL Sign
    Signature Algorithm: sha384WithRSAEncryption
         5f:02:00:bb:49:c7:ec:aa:87:31:80:6e:d8:f4:b1:c7:78:4c:
         09:7b:2f:f5:3f:49:9f:fa:21:d2:b3:b2:1a:88:58:54:d1:b9:
         42:04:de:00:18:a2:7e:df:17:e6:f1:61:55:f6:9a:e6:80:46:
         03:80:64:03:36:c3:53:b0:25:58:41:29:d9:00:9c:7a:bb:05:
         47:a1:f5:2d:bf:38:33:c3:85:04:ca:4d:88:ab:19:71:b5:40:
         ac:62:de:bc:b4:a2:85:df:c8:cd:3f:d9:7b:69:c1:4d:8a:a7:
         0d:9c:80:e1:b9:8c:74:84:d2:0e:4b:a8:1d:27:cb:a5:4b:06:
         5f:59:63:eb:38:5f:d1:b2:22:35:ec:47:e8:61:64:90:3e:0a:
         8b:c9:d9:28:83:5d:9b:28:8b:55:4e:d7:23:a8:6c:09:a9:a6:
         9f:9d:17:e0:5c:5f:eb:27:6f:34:78:ee:dc:c1:c1:43:c9:0c:
         6a:a1:8e:93:08:91:89:a3:a9:9e:5d:65:7f:05:82:f3:63:93:
         68:19:22:20:5a:b4:12:10:da:fe:e1:83:42:74:d1:55:f8:e7:
         0c:b9:05:a0:c6:e2:cc:8e:ab:f0:f0:0c:b3:de:9e:98:ab:29:
         bb:0c:2c:39:36:bb:62:d9:d9:90:00:fb:88:c2:fb:ed:2e:cf:
         43:5b:dc:bb
-----BEGIN CERTIFICATE-----
MIID1TCCAr2gAwIBAgIQdtvOfhheSPo3hqh0W1Fx9DANBgkqhkiG9w0BAQwFADAZ
MRcwFQYDVQQDDA5NRiBWUE4gUm9vdCBDQTAgFw0yMDAxMjYxMTU2MDhaGA8yMTIw
MDEwMTExNTYwOFowIzEhMB8GA1UEAwwYTUYgVlBOIE1lZGViYWNoIEFkbWluIENB
MIIBIjANBgkqhkiG9w0BAQEFAAOCAQ8AMIIBCgKCAQEAtLagL9LI2sHC3jH3xmmF
e47Oh33BOmlGRrF90zZ/uJuZCBPnxz079fFn8YHdRo8WJr2fC6B4XP/MkQi8Wvwf
lK6YkK9tWKKzhFeEjaWOU1sQpIsA0ctx+hnzZRupM46sY8wt74z5msUH3totuoUT
GdvTSFHdojZzGXgqR8wqKijXsGiDnYS0PMYyBtBZg79edLL0u6IzcpUVQlPLKp4w
/0Ttt0jsE6Dwt1UmGFyyWdel6MpAYz1kDGInz+xSRc8f9rk9mdQ3PMFi/FTNSjZQ
ZpIC5tLlsVEi/4ivP68VDCIzC/YEvOldeTMs6L2HhIWPU73YwmJhpwTn15Iufm7+
LwIDAQABo4IBCzCCAQcwPwYIKwYBBQUHAQEEMzAxMC8GCCsGAQUFBzAChiNodHRw
Oi8vcGtpLm1heGYuZGV2L21mX3Zwbl9yb290LnBlbTA0BgNVHR8ELTArMCmgJ6Al
hiNodHRwOi8vcGtpLm1heGYuZGV2L21mX3Zwbl9yb290LmNybDAMBgNVHRMEBTAD
AQH/MB0GA1UdDgQWBBTU8CKnF11joGPd+MncX6jzagOifTBUBgNVHSMETTBLgBSH
hh7nRe0tEbruDnCzUk3j8SHv6KEdpBswGTEXMBUGA1UEAwwOTUYgVlBOIFJvb3Qg
Q0GCFHinWkM8fmG6PQFoqyL3qczS7k8HMAsGA1UdDwQEAwIBBjANBgkqhkiG9w0B
AQwFAAOCAQEAXwIAu0nH7KqHMYBu2PSxx3hMCXsv9T9Jn/oh0rOyGohYVNG5QgTe
ABiift8X5vFhVfaa5oBGA4BkAzbDU7AlWEEp2QCcersFR6H1Lb84M8OFBMpNiKsZ
cbVArGLevLSihd/IzT/Ze2nBTYqnDZyA4bmMdITSDkuoHSfLpUsGX1lj6zhf0bIi
NexH6GFkkD4Ki8nZKINdmyiLVU7XI6hsCammn50X4Fxf6ydvNHju3MHBQ8kMaqGO
kwiRiaOpnl1lfwWC82OTaBkiIFq0EhDa/uGDQnTRVfjnDLkFoMbizI6r8PAMs96e
mKspuwwsOTa7YtnZkAD7iML77S7PQ1vcuw==
-----END CERTIFICATE-----
