Certificate:
    Data:
        Version: 3 (0x2)
        Serial Number:
            34:a8:c1:0c:95:27:1c:2f:43:eb:66:40:20:1f:b8:43
        Signature Algorithm: sha384WithRSAEncryption
        Issuer: CN=MF VPN Root CA
        Validity
            Not Before: Jan 26 13:46:21 2020 GMT
            Not After : Jan  1 13:46:21 2120 GMT
        Subject: CN=MF VPN rou-de CA
        Subject Public Key Info:
            Public Key Algorithm: rsaEncryption
                RSA Public-Key: (4096 bit)
                Modulus:
                    00:bf:95:27:da:d8:74:55:91:7c:cc:e3:30:f6:d8:
                    ad:b6:fb:ea:65:9a:11:1b:9e:0e:83:f6:06:24:ba:
                    61:58:8a:93:f3:ab:81:a0:43:38:f0:36:ca:ab:c5:
                    29:f9:a5:a7:55:09:50:dd:80:67:d8:d5:7f:22:18:
                    18:e8:a5:ea:1f:e4:d7:80:2f:24:55:a9:af:ac:34:
                    b1:02:21:b5:f8:d6:25:5f:64:32:4a:96:74:22:d3:
                    22:1e:77:7c:af:75:87:32:98:1f:40:03:8d:27:3f:
                    e8:18:09:1c:f4:5d:3d:3b:d3:69:f5:56:92:52:8e:
                    d2:cf:85:4b:aa:f9:58:41:f5:54:0b:be:84:85:fe:
                    0a:63:fd:cf:88:f8:5c:43:66:d5:de:c0:a3:c3:e2:
                    e7:0a:19:ad:5c:32:ce:49:eb:28:87:2b:a4:d1:ff:
                    1a:2b:06:91:ee:87:b4:8a:e9:ec:1e:00:96:3f:5c:
                    45:1e:f3:61:d2:f4:45:f4:7f:a2:ea:f3:a6:6e:01:
                    3a:8c:87:0e:11:52:60:3e:c4:5f:78:86:04:f3:c1:
                    50:dd:93:a8:bb:c0:41:bc:35:6e:ff:d2:eb:45:47:
                    46:4b:19:26:4f:92:66:77:a1:ca:88:dd:83:fe:7e:
                    cd:83:27:e7:98:96:cb:12:a7:19:b1:97:bb:31:c0:
                    8a:ac:d5:ca:73:d4:04:31:47:ce:f6:3d:7b:5e:71:
                    19:84:f9:17:e4:d0:33:ab:78:3b:0d:c3:74:8a:27:
                    1c:93:78:af:2d:e8:03:ce:c8:9f:6b:ed:24:cb:05:
                    1a:e3:90:60:54:90:4b:96:7d:ec:95:96:b9:7a:92:
                    aa:a2:7f:7a:8a:c1:a0:36:1b:6b:66:03:d5:d6:fa:
                    91:57:b5:65:37:73:54:89:56:08:dc:e7:7c:a1:26:
                    ca:ed:10:dc:9c:ca:84:ff:d6:3b:b9:f9:38:3e:87:
                    7a:02:62:58:e2:6c:30:e8:e6:07:fc:bb:55:1a:54:
                    76:45:f1:22:18:60:78:30:e6:ba:f7:57:c0:a9:d6:
                    b6:f5:99:f3:a4:f8:de:e6:1d:06:0a:bd:a8:f6:94:
                    0f:23:af:ee:bd:db:ad:44:4a:ac:c8:cf:a3:93:8b:
                    b6:86:87:be:a0:25:df:bf:b1:2a:9b:0d:0f:cb:2c:
                    21:6c:fc:83:34:97:d2:90:f6:e5:98:7d:37:9b:a0:
                    a5:b9:c9:03:3d:ef:00:49:65:5d:95:a6:b2:d7:72:
                    d2:15:b4:8b:a5:fc:39:aa:10:22:fa:77:a3:ed:e2:
                    0d:23:e5:34:ab:07:cc:aa:f9:a2:90:94:16:70:ba:
                    9d:69:81:05:3b:8f:96:b3:93:5f:37:48:3e:a9:90:
                    f7:7b:61
                Exponent: 65537 (0x10001)
        X509v3 extensions:
            Authority Information Access: 
                CA Issuers - URI:http://pki.maxf.dev/mf_vpn_root.pem

            X509v3 CRL Distribution Points: 

                Full Name:
                  URI:http://pki.maxf.dev/mf_vpn_root.crl

            X509v3 Basic Constraints: 
                CA:TRUE
            X509v3 Subject Key Identifier: 
                71:20:63:FF:22:30:BE:89:8D:D6:C8:E4:A0:85:91:55:42:A6:21:6E
            X509v3 Authority Key Identifier: 
                keyid:F6:4F:3C:BC:70:8F:0F:8D:A5:EB:C4:D7:0C:21:FB:8C:0E:A7:C3:2E
                DirName:/CN=MF VPN Root CA
                serial:1E:80:51:C8:4A:12:4D:40:11:53:64:D9:BE:AD:34:33:12:91:B4:5B

            X509v3 Key Usage: 
                Certificate Sign, CRL Sign
    Signature Algorithm: sha384WithRSAEncryption
         36:53:7c:69:35:11:19:3c:5d:de:ce:2e:5a:32:f8:cb:d2:0c:
         28:37:05:96:0a:ae:fa:01:5c:8e:fd:90:b1:99:5f:44:a1:f5:
         ae:4d:f2:06:a7:0b:ce:f1:9d:ec:57:2e:42:e8:2a:65:75:55:
         1a:c7:47:fe:59:54:06:a8:80:d3:63:87:b7:72:a8:58:df:66:
         be:b0:76:d0:de:3d:4e:e6:1c:d3:57:4e:84:0a:cc:42:4b:02:
         2c:80:6e:c9:04:cc:a1:a0:62:0d:ce:49:e8:38:53:6e:74:48:
         fb:27:12:3f:04:b9:1a:da:54:a8:fb:bb:61:fc:1e:55:32:ac:
         9f:bc:1d:c2:e3:ae:39:0f:24:d1:63:d1:38:2d:17:e5:78:b5:
         52:13:47:af:be:a9:f6:43:b8:79:4e:27:af:24:a4:3b:59:24:
         65:2e:16:e1:76:8c:ab:f1:09:2d:eb:0d:7e:38:81:8a:15:d9:
         93:c7:49:c8:fc:d7:07:6f:78:b0:fc:5a:53:91:6b:b9:77:1a:
         e9:1f:ca:c6:96:81:a3:9f:08:e8:6e:02:79:0b:e0:f2:03:be:
         22:be:d5:b7:b7:c7:4c:24:5b:e2:d4:ef:c5:bf:66:35:d3:87:
         7f:8a:bd:4a:06:70:6f:03:e5:17:5b:1c:a1:05:59:ad:d5:19:
         e4:91:d6:7b:34:b0:ef:fe:39:7f:2e:fc:aa:4f:24:03:8f:fe:
         3e:b7:a2:3b:83:4b:4e:7e:e6:dc:2c:d3:ce:cf:88:92:79:0e:
         e5:72:4f:da:57:2d:ac:7a:af:61:b3:b4:db:3a:5b:42:88:1a:
         40:fb:18:6d:f6:c0:f6:57:fa:7d:84:64:db:7a:36:6c:b4:11:
         d0:58:81:1d:8a:b7:30:6f:d1:23:5b:f7:b9:21:2e:4a:7c:97:
         0d:3f:b1:83:0e:73:75:38:01:3d:37:04:f2:6f:3f:c2:1e:e8:
         65:5f:9d:b1:66:8e:0a:3a:eb:bd:a4:03:bc:18:58:46:f3:b6:
         9f:f4:1c:2b:e5:a5:22:5f:18:89:24:82:c3:c9:85:4d:68:c1:
         f0:81:82:79:58:89:7f:9a:00:02:ed:f4:77:27:5c:1b:55:20:
         00:ea:92:e6:31:a9:f1:87:a0:3a:71:62:90:eb:87:d2:97:90:
         ee:5e:48:12:29:80:b4:a7:67:1e:a2:af:1f:64:64:4e:fb:28:
         14:22:c1:c1:ea:5d:65:bf:7b:05:f2:88:cd:8d:8f:00:50:aa:
         0f:c1:99:f8:bd:55:7c:50:34:fe:62:c9:42:7c:be:ec:b8:12:
         53:e1:41:a7:01:5d:6a:8f:aa:3f:c1:62:c7:20:51:8d:73:18:
         ed:16:a7:05:45:62:cb:1a
-----BEGIN CERTIFICATE-----
MIIFzTCCA7WgAwIBAgIQNKjBDJUnHC9D62ZAIB+4QzANBgkqhkiG9w0BAQwFADAZ
MRcwFQYDVQQDDA5NRiBWUE4gUm9vdCBDQTAgFw0yMDAxMjYxMzQ2MjFaGA8yMTIw
MDEwMTEzNDYyMVowGzEZMBcGA1UEAwwQTUYgVlBOIHJvdS1kZSBDQTCCAiIwDQYJ
KoZIhvcNAQEBBQADggIPADCCAgoCggIBAL+VJ9rYdFWRfMzjMPbYrbb76mWaERue
DoP2BiS6YViKk/OrgaBDOPA2yqvFKfmlp1UJUN2AZ9jVfyIYGOil6h/k14AvJFWp
r6w0sQIhtfjWJV9kMkqWdCLTIh53fK91hzKYH0ADjSc/6BgJHPRdPTvTafVWklKO
0s+FS6r5WEH1VAu+hIX+CmP9z4j4XENm1d7Ao8Pi5woZrVwyzknrKIcrpNH/GisG
ke6HtIrp7B4Alj9cRR7zYdL0RfR/ourzpm4BOoyHDhFSYD7EX3iGBPPBUN2TqLvA
Qbw1bv/S60VHRksZJk+SZnehyojdg/5+zYMn55iWyxKnGbGXuzHAiqzVynPUBDFH
zvY9e15xGYT5F+TQM6t4Ow3DdIonHJN4ry3oA87In2vtJMsFGuOQYFSQS5Z97JWW
uXqSqqJ/eorBoDYba2YD1db6kVe1ZTdzVIlWCNznfKEmyu0Q3JzKhP/WO7n5OD6H
egJiWOJsMOjmB/y7VRpUdkXxIhhgeDDmuvdXwKnWtvWZ86T43uYdBgq9qPaUDyOv
7r3brURKrMjPo5OLtoaHvqAl37+xKpsND8ssIWz8gzSX0pD25Zh9N5ugpbnJAz3v
AEllXZWmstdy0hW0i6X8OaoQIvp3o+3iDSPlNKsHzKr5opCUFnC6nWmBBTuPlrOT
XzdIPqmQ93thAgMBAAGjggELMIIBBzA/BggrBgEFBQcBAQQzMDEwLwYIKwYBBQUH
MAKGI2h0dHA6Ly9wa2kubWF4Zi5kZXYvbWZfdnBuX3Jvb3QucGVtMDQGA1UdHwQt
MCswKaAnoCWGI2h0dHA6Ly9wa2kubWF4Zi5kZXYvbWZfdnBuX3Jvb3QuY3JsMAwG
A1UdEwQFMAMBAf8wHQYDVR0OBBYEFHEgY/8iML6JjdbI5KCFkVVCpiFuMFQGA1Ud
IwRNMEuAFPZPPLxwjw+NpevE1wwh+4wOp8MuoR2kGzAZMRcwFQYDVQQDDA5NRiBW
UE4gUm9vdCBDQYIUHoBRyEoSTUARU2TZvq00MxKRtFswCwYDVR0PBAQDAgEGMA0G
CSqGSIb3DQEBDAUAA4ICAQA2U3xpNREZPF3ezi5aMvjL0gwoNwWWCq76AVyO/ZCx
mV9EofWuTfIGpwvO8Z3sVy5C6CpldVUax0f+WVQGqIDTY4e3cqhY32a+sHbQ3j1O
5hzTV06ECsxCSwIsgG7JBMyhoGINzknoOFNudEj7JxI/BLka2lSo+7th/B5VMqyf
vB3C4645DyTRY9E4LRfleLVSE0evvqn2Q7h5TievJKQ7WSRlLhbhdoyr8Qkt6w1+
OIGKFdmTx0nI/NcHb3iw/FpTkWu5dxrpH8rGloGjnwjobgJ5C+DyA74ivtW3t8dM
JFvi1O/Fv2Y104d/ir1KBnBvA+UXWxyhBVmt1RnkkdZ7NLDv/jl/LvyqTyQDj/4+
t6I7g0tOfubcLNPOz4iSeQ7lck/aVy2seq9hs7TbOltCiBpA+xht9sD2V/p9hGTb
ejZstBHQWIEdircwb9EjW/e5IS5KfJcNP7GDDnN1OAE9NwTybz/CHuhlX52xZo4K
Ouu9pAO8GFhG87af9Bwr5aUiXxiJJILDyYVNaMHwgYJ5WIl/mgAC7fR3J1wbVSAA
6pLmManxh6A6cWKQ64fSl5DuXkgSKYC0p2ceoq8fZGRO+ygUIsHB6l1lv3sF8ojN
jY8AUKoPwZn4vVV8UDT+YslCfL7suBJT4UGnAV1qj6o/wWLHIFGNcxjtFqcFRWLL
Gg==
-----END CERTIFICATE-----
