Certificate:
    Data:
        Version: 3 (0x2)
        Serial Number:
            6f:56:04:a4:06:e5:7f:a9:20:f2:64:9f:c1:28:f5:4d
        Signature Algorithm: sha384WithRSAEncryption
        Issuer: CN=MF VPN Root CA
        Validity
            Not Before: Jan 26 11:57:08 2020 GMT
            Not After : Jan  1 11:57:08 2120 GMT
        Subject: CN=MF VPN Site2Site CA
        Subject Public Key Info:
            Public Key Algorithm: rsaEncryption
                RSA Public-Key: (2048 bit)
                Modulus:
                    00:de:f0:9e:4f:10:ff:77:f6:ff:17:5b:f5:80:b6:
                    04:3a:70:df:22:f9:d3:4d:7e:3a:82:c1:80:2e:69:
                    3f:58:0a:e0:84:f9:05:41:ce:1e:91:75:fc:ad:63:
                    0c:cd:f2:a4:3a:32:e8:5c:9d:30:52:9e:f1:e1:f0:
                    c4:d7:3d:8f:a8:d9:47:0a:84:63:0f:8d:dc:73:65:
                    d1:71:a6:59:07:7d:99:2b:ff:7b:4d:dd:33:f2:d6:
                    0b:d3:fe:1d:e8:22:be:32:60:56:00:ab:83:d7:ed:
                    9a:40:bb:cf:a2:aa:6b:47:0b:86:b1:ab:d8:66:81:
                    38:51:7f:ae:53:a1:80:fb:f3:d4:8f:11:1f:59:a7:
                    bb:ae:d8:f7:3b:57:66:4c:80:01:ca:9a:1b:07:f9:
                    7c:fe:76:b0:cd:b4:f5:7c:b3:61:74:d5:b5:0e:54:
                    5d:25:34:4e:88:7b:26:2a:ec:29:0f:26:54:db:0e:
                    63:12:9a:38:9d:1e:fd:89:c1:81:05:7d:69:b1:62:
                    7b:5a:7c:16:f5:2b:5a:42:2a:ed:bc:d8:c3:9e:56:
                    c2:2b:55:fb:c3:33:96:f4:15:61:74:84:6d:7d:7d:
                    c6:c4:92:3e:af:20:a2:f3:3f:ff:3c:d2:ef:cb:1e:
                    4d:28:c0:a2:f1:05:71:85:26:d8:0f:91:6b:fa:82:
                    40:cb
                Exponent: 65537 (0x10001)
        X509v3 extensions:
            Authority Information Access: 
                CA Issuers - URI:http://pki.maxf.dev/mf_vpn_root.pem

            X509v3 CRL Distribution Points: 

                Full Name:
                  URI:http://pki.maxf.dev/mf_vpn_root.crl

            X509v3 Basic Constraints: 
                CA:TRUE
            X509v3 Subject Key Identifier: 
                3B:96:07:17:AC:30:ED:56:4B:5F:FE:0C:23:20:FF:C6:F7:18:6F:E8
            X509v3 Authority Key Identifier: 
                keyid:87:86:1E:E7:45:ED:2D:11:BA:EE:0E:70:B3:52:4D:E3:F1:21:EF:E8
                DirName:/CN=MF VPN Root CA
                serial:78:A7:5A:43:3C:7E:61:BA:3D:01:68:AB:22:F7:A9:CC:D2:EE:4F:07

            X509v3 Key Usage: 
                Certificate Sign, CRL Sign
    Signature Algorithm: sha384WithRSAEncryption
         b8:65:b9:b3:18:48:b1:11:de:1d:7e:17:bf:cd:3c:b1:d2:51:
         ea:c3:46:1b:21:1b:a0:61:03:83:2f:14:d1:3f:26:1a:da:4e:
         76:2f:72:9b:5e:8b:63:66:04:8c:f0:df:67:67:22:f6:9e:ad:
         e7:60:49:6c:de:15:37:27:08:56:9c:4e:c9:55:27:d9:7b:55:
         37:89:8d:bf:51:44:8f:03:0a:7e:94:35:e1:44:34:9f:03:6c:
         ae:d6:85:73:09:a5:0b:f2:85:74:4a:78:7c:2f:30:ab:dd:bc:
         a7:a5:39:43:00:6b:ce:19:c9:9c:3b:a1:ac:ce:55:52:68:98:
         9a:7f:69:c2:aa:cd:88:5b:99:fb:6f:9d:ce:17:87:58:b7:cd:
         e5:b9:30:f1:ce:20:30:9d:51:72:27:3a:24:09:3d:5e:2e:4a:
         7e:8d:f1:ad:7a:0e:2e:11:95:b4:61:27:c9:2b:43:58:aa:10:
         de:92:8b:1e:68:fc:d3:51:b0:a3:32:b9:e2:ba:11:48:63:8b:
         42:3d:86:bd:8c:96:4b:86:b1:aa:7b:82:ac:5f:19:78:f0:59:
         0f:0b:fa:14:8d:92:7f:86:d5:24:e5:27:37:f4:38:57:76:7d:
         5c:2f:ac:45:c0:6f:2b:03:44:d9:6c:ab:2b:17:36:2c:09:f2:
         ef:c2:3c:6f
-----BEGIN CERTIFICATE-----
MIID0DCCArigAwIBAgIQb1YEpAblf6kg8mSfwSj1TTANBgkqhkiG9w0BAQwFADAZ
MRcwFQYDVQQDDA5NRiBWUE4gUm9vdCBDQTAgFw0yMDAxMjYxMTU3MDhaGA8yMTIw
MDEwMTExNTcwOFowHjEcMBoGA1UEAwwTTUYgVlBOIFNpdGUyU2l0ZSBDQTCCASIw
DQYJKoZIhvcNAQEBBQADggEPADCCAQoCggEBAN7wnk8Q/3f2/xdb9YC2BDpw3yL5
001+OoLBgC5pP1gK4IT5BUHOHpF1/K1jDM3ypDoy6FydMFKe8eHwxNc9j6jZRwqE
Yw+N3HNl0XGmWQd9mSv/e03dM/LWC9P+HegivjJgVgCrg9ftmkC7z6Kqa0cLhrGr
2GaBOFF/rlOhgPvz1I8RH1mnu67Y9ztXZkyAAcqaGwf5fP52sM209XyzYXTVtQ5U
XSU0Toh7JirsKQ8mVNsOYxKaOJ0e/YnBgQV9abFie1p8FvUrWkIq7bzYw55WwitV
+8MzlvQVYXSEbX19xsSSPq8govM//zzS78seTSjAovEFcYUm2A+Ra/qCQMsCAwEA
AaOCAQswggEHMD8GCCsGAQUFBwEBBDMwMTAvBggrBgEFBQcwAoYjaHR0cDovL3Br
aS5tYXhmLmRldi9tZl92cG5fcm9vdC5wZW0wNAYDVR0fBC0wKzApoCegJYYjaHR0
cDovL3BraS5tYXhmLmRldi9tZl92cG5fcm9vdC5jcmwwDAYDVR0TBAUwAwEB/zAd
BgNVHQ4EFgQUO5YHF6ww7VZLX/4MIyD/xvcYb+gwVAYDVR0jBE0wS4AUh4Ye50Xt
LRG67g5ws1JN4/Eh7+ihHaQbMBkxFzAVBgNVBAMMDk1GIFZQTiBSb290IENBghR4
p1pDPH5huj0BaKsi96nM0u5PBzALBgNVHQ8EBAMCAQYwDQYJKoZIhvcNAQEMBQAD
ggEBALhlubMYSLER3h1+F7/NPLHSUerDRhshG6BhA4MvFNE/JhraTnYvcptei2Nm
BIzw32dnIvaeredgSWzeFTcnCFacTslVJ9l7VTeJjb9RRI8DCn6UNeFENJ8DbK7W
hXMJpQvyhXRKeHwvMKvdvKelOUMAa84ZyZw7oazOVVJomJp/acKqzYhbmftvnc4X
h1i3zeW5MPHOIDCdUXInOiQJPV4uSn6N8a16Di4RlbRhJ8krQ1iqEN6Six5o/NNR
sKMyueK6EUhji0I9hr2MlkuGsap7gqxfGXjwWQ8L+hSNkn+G1STlJzf0OFd2fVwv
rEXAbysDRNlsqysXNiwJ8u/CPG8=
-----END CERTIFICATE-----
