Certificate:
    Data:
        Version: 3 (0x2)
        Serial Number:
            de:a2:f2:a3:5f:9d:6b:49:69:af:6b:d1:48:2e:39:96
        Signature Algorithm: sha384WithRSAEncryption
        Issuer: CN=Easy-RSA CA
        Validity
            Not Before: Jan 26 10:43:48 2020 GMT
            Not After : Jan  1 10:43:48 2120 GMT
        Subject: CN=MF VPN Site2Site CA
        Subject Public Key Info:
            Public Key Algorithm: rsaEncryption
                RSA Public-Key: (2048 bit)
                Modulus:
                    00:de:f0:9e:4f:10:ff:77:f6:ff:17:5b:f5:80:b6:
                    04:3a:70:df:22:f9:d3:4d:7e:3a:82:c1:80:2e:69:
                    3f:58:0a:e0:84:f9:05:41:ce:1e:91:75:fc:ad:63:
                    0c:cd:f2:a4:3a:32:e8:5c:9d:30:52:9e:f1:e1:f0:
                    c4:d7:3d:8f:a8:d9:47:0a:84:63:0f:8d:dc:73:65:
                    d1:71:a6:59:07:7d:99:2b:ff:7b:4d:dd:33:f2:d6:
                    0b:d3:fe:1d:e8:22:be:32:60:56:00:ab:83:d7:ed:
                    9a:40:bb:cf:a2:aa:6b:47:0b:86:b1:ab:d8:66:81:
                    38:51:7f:ae:53:a1:80:fb:f3:d4:8f:11:1f:59:a7:
                    bb:ae:d8:f7:3b:57:66:4c:80:01:ca:9a:1b:07:f9:
                    7c:fe:76:b0:cd:b4:f5:7c:b3:61:74:d5:b5:0e:54:
                    5d:25:34:4e:88:7b:26:2a:ec:29:0f:26:54:db:0e:
                    63:12:9a:38:9d:1e:fd:89:c1:81:05:7d:69:b1:62:
                    7b:5a:7c:16:f5:2b:5a:42:2a:ed:bc:d8:c3:9e:56:
                    c2:2b:55:fb:c3:33:96:f4:15:61:74:84:6d:7d:7d:
                    c6:c4:92:3e:af:20:a2:f3:3f:ff:3c:d2:ef:cb:1e:
                    4d:28:c0:a2:f1:05:71:85:26:d8:0f:91:6b:fa:82:
                    40:cb
                Exponent: 65537 (0x10001)
        X509v3 extensions:
            Authority Information Access: 
                CA Issuers - URI:http://pki.maxf.dev/mf_vpn_root.pem

            X509v3 CRL Distribution Points: 

                Full Name:
                  URI:http://pki.maxf.dev/mf_vpn_root.crl

            X509v3 Basic Constraints: 
                CA:TRUE
            X509v3 Subject Key Identifier: 
                3B:96:07:17:AC:30:ED:56:4B:5F:FE:0C:23:20:FF:C6:F7:18:6F:E8
            X509v3 Authority Key Identifier: 
                keyid:5B:AC:AC:4C:B8:15:13:84:1A:CB:84:F7:32:EB:73:C7:78:EE:EA:A1
                DirName:/CN=Easy-RSA CA
                serial:07:6F:55:E7:A2:17:DF:E8:19:75:4D:BE:06:20:6C:A8:31:9C:95:E2

            X509v3 Key Usage: 
                Certificate Sign, CRL Sign
    Signature Algorithm: sha384WithRSAEncryption
         64:1c:6c:77:fa:d7:6c:5f:71:bf:21:2f:dc:68:07:33:b9:d9:
         3f:4d:a7:7a:80:32:50:49:13:f6:24:6c:d9:71:fe:6e:6e:03:
         07:87:23:e5:12:46:7b:ad:7c:bf:5f:c1:74:18:11:c3:f3:41:
         ab:eb:4f:ec:b6:fb:cb:59:11:a0:91:a8:26:41:95:7c:12:10:
         07:42:45:eb:48:ca:4c:c2:61:01:66:10:07:17:d6:13:12:f5:
         f3:2b:e4:7c:ce:95:9d:21:c0:cc:44:43:de:04:70:08:24:c6:
         37:b8:90:d9:26:19:8c:3a:c9:24:7a:02:15:d7:22:1f:b5:5d:
         df:79:18:4f:a0:1e:92:84:96:70:b0:fa:59:e4:ae:f7:4b:8d:
         e1:38:46:53:6e:9b:1e:e0:40:10:2c:ae:fb:fd:ec:fb:63:38:
         95:3d:05:2f:d6:b7:fb:a3:39:bc:a3:22:9d:94:39:d8:6d:55:
         d2:bc:85:61:2d:2c:68:c0:c4:3f:23:73:56:b5:92:84:f8:b1:
         fe:9e:62:d8:7b:c6:99:e5:a2:6b:04:eb:41:f8:14:ff:ab:73:
         d3:f6:bb:9c:b7:64:ad:15:ab:b2:06:a2:e0:62:dd:2d:fa:e6:
         2e:84:da:22:2b:29:c6:34:af:e4:67:5d:2b:1e:f5:fe:a4:5f:
         b6:1a:36:d1
-----BEGIN CERTIFICATE-----
MIIDyzCCArOgAwIBAgIRAN6i8qNfnWtJaa9r0UguOZYwDQYJKoZIhvcNAQEMBQAw
FjEUMBIGA1UEAwwLRWFzeS1SU0EgQ0EwIBcNMjAwMTI2MTA0MzQ4WhgPMjEyMDAx
MDExMDQzNDhaMB4xHDAaBgNVBAMME01GIFZQTiBTaXRlMlNpdGUgQ0EwggEiMA0G
CSqGSIb3DQEBAQUAA4IBDwAwggEKAoIBAQDe8J5PEP939v8XW/WAtgQ6cN8i+dNN
fjqCwYAuaT9YCuCE+QVBzh6RdfytYwzN8qQ6MuhcnTBSnvHh8MTXPY+o2UcKhGMP
jdxzZdFxplkHfZkr/3tN3TPy1gvT/h3oIr4yYFYAq4PX7ZpAu8+iqmtHC4axq9hm
gThRf65ToYD789SPER9Zp7uu2Pc7V2ZMgAHKmhsH+Xz+drDNtPV8s2F01bUOVF0l
NE6IeyYq7CkPJlTbDmMSmjidHv2JwYEFfWmxYntafBb1K1pCKu282MOeVsIrVfvD
M5b0FWF0hG19fcbEkj6vIKLzP/880u/LHk0owKLxBXGFJtgPkWv6gkDLAgMBAAGj
ggEIMIIBBDA/BggrBgEFBQcBAQQzMDEwLwYIKwYBBQUHMAKGI2h0dHA6Ly9wa2ku
bWF4Zi5kZXYvbWZfdnBuX3Jvb3QucGVtMDQGA1UdHwQtMCswKaAnoCWGI2h0dHA6
Ly9wa2kubWF4Zi5kZXYvbWZfdnBuX3Jvb3QuY3JsMAwGA1UdEwQFMAMBAf8wHQYD
VR0OBBYEFDuWBxesMO1WS1/+DCMg/8b3GG/oMFEGA1UdIwRKMEiAFFusrEy4FROE
GsuE9zLrc8d47uqhoRqkGDAWMRQwEgYDVQQDDAtFYXN5LVJTQSBDQYIUB29V56IX
3+gZdU2+BiBsqDGcleIwCwYDVR0PBAQDAgEGMA0GCSqGSIb3DQEBDAUAA4IBAQBk
HGx3+tdsX3G/IS/caAczudk/Tad6gDJQSRP2JGzZcf5ubgMHhyPlEkZ7rXy/X8F0
GBHD80Gr60/stvvLWRGgkagmQZV8EhAHQkXrSMpMwmEBZhAHF9YTEvXzK+R8zpWd
IcDMREPeBHAIJMY3uJDZJhmMOskkegIV1yIftV3feRhPoB6ShJZwsPpZ5K73S43h
OEZTbpse4EAQLK77/ez7YziVPQUv1rf7ozm8oyKdlDnYbVXSvIVhLSxowMQ/I3NW
tZKE+LH+nmLYe8aZ5aJrBOtB+BT/q3PT9ruct2StFauyBqLgYt0t+uYuhNoiKynG
NK/kZ10rHvX+pF+2GjbR
-----END CERTIFICATE-----
