Certificate:
    Data:
        Version: 3 (0x2)
        Serial Number:
            59:1e:1c:47:ba:d3:6a:7b:5c:27:f5:a6:d6:ba:ac:ca
        Signature Algorithm: sha384WithRSAEncryption
        Issuer: CN=MF VPN Root CA
        Validity
            Not Before: Jan 26 11:57:16 2020 GMT
            Not After : Jan  1 11:57:16 2120 GMT
        Subject: CN=MF VPN rou-zh Client CA
        Subject Public Key Info:
            Public Key Algorithm: rsaEncryption
                RSA Public-Key: (2048 bit)
                Modulus:
                    00:a1:06:a2:53:a4:c2:2c:d1:23:d4:7e:23:39:22:
                    47:5f:0e:93:86:a0:06:65:42:cd:0c:46:ed:0b:44:
                    bc:77:86:b1:ff:3b:61:04:5d:25:11:8c:2b:f6:4e:
                    09:e3:bd:6a:bc:c5:8a:27:9b:2b:27:cc:12:f0:5c:
                    93:54:61:d6:b6:4b:d6:7a:16:8b:a8:10:77:4b:c5:
                    80:9f:b5:b8:98:96:0a:91:a4:54:6c:4b:a3:51:b3:
                    a6:a2:21:4a:5b:2d:57:bc:3c:5e:ca:92:cf:18:69:
                    ce:94:21:a9:79:6e:01:87:0e:73:51:51:13:22:94:
                    32:5f:41:55:dd:d5:fd:77:fd:c6:68:2f:a3:99:e7:
                    51:73:7d:68:68:d2:ba:8d:9f:b9:b4:e1:cb:de:eb:
                    cd:b0:e8:cd:91:75:23:ad:61:54:69:1c:e7:7f:df:
                    10:99:41:ae:8e:be:58:79:ab:1e:d3:44:8b:84:eb:
                    79:c7:16:da:01:37:c7:e7:84:ec:8e:36:51:17:f5:
                    8e:06:d5:10:c3:8a:c2:09:3a:2a:80:f0:19:22:de:
                    c3:90:ea:b2:c0:83:a0:94:77:2c:ea:b4:46:57:5f:
                    95:9e:bd:eb:d9:c8:40:36:82:00:ea:f3:f7:a0:e5:
                    66:c0:fe:a8:b6:0d:db:ff:15:31:60:0b:a6:da:92:
                    23:0f
                Exponent: 65537 (0x10001)
        X509v3 extensions:
            Authority Information Access: 
                CA Issuers - URI:http://pki.maxf.dev/mf_vpn_root.pem

            X509v3 CRL Distribution Points: 

                Full Name:
                  URI:http://pki.maxf.dev/mf_vpn_root.crl

            X509v3 Basic Constraints: 
                CA:TRUE
            X509v3 Subject Key Identifier: 
                6A:99:CD:54:C1:9E:1A:27:91:28:1E:6B:01:F9:A3:A4:55:A6:EE:55
            X509v3 Authority Key Identifier: 
                keyid:87:86:1E:E7:45:ED:2D:11:BA:EE:0E:70:B3:52:4D:E3:F1:21:EF:E8
                DirName:/CN=MF VPN Root CA
                serial:78:A7:5A:43:3C:7E:61:BA:3D:01:68:AB:22:F7:A9:CC:D2:EE:4F:07

            X509v3 Key Usage: 
                Certificate Sign, CRL Sign
    Signature Algorithm: sha384WithRSAEncryption
         0c:6b:5f:57:a7:0b:40:87:d5:71:d7:3a:81:b2:86:cf:f3:66:
         bc:c6:85:b5:00:f9:51:37:a7:b9:fb:3a:1d:56:60:73:1d:0a:
         d3:96:3e:50:8d:4c:35:59:d6:de:2c:09:72:39:f0:2b:cc:a9:
         5f:a2:fc:19:cf:34:34:28:cd:8b:df:af:e4:be:c0:78:f6:a5:
         10:6d:ec:3e:fe:06:c0:89:b4:2d:7a:73:c3:d9:a3:bc:98:20:
         bd:f0:92:68:e4:d6:b0:b7:43:a9:d3:9b:55:76:60:28:8f:4c:
         41:fb:96:62:60:16:d3:1b:d9:d3:e1:5c:e1:94:27:a0:59:93:
         f3:f2:4e:2b:50:4a:ad:76:e6:3b:ab:3b:2a:81:40:2f:84:e1:
         55:a9:33:36:de:f8:31:d9:0a:3c:cd:d6:af:84:a4:8a:6c:6e:
         68:52:44:07:a1:c6:fe:cc:4a:52:0e:ee:bd:74:a2:d9:2a:7a:
         31:29:5d:7c:74:80:72:91:fc:e9:f6:74:5b:e6:06:30:12:81:
         54:4f:bf:78:93:2f:58:95:29:f3:1e:ad:0c:8e:ca:65:71:a3:
         88:a3:8d:54:12:dc:33:10:29:b6:3e:d4:c6:5d:14:01:ad:47:
         87:73:cc:92:55:a0:2b:16:e6:ab:9e:c5:fd:c5:88:d9:06:3a:
         b5:9a:f8:d1
-----BEGIN CERTIFICATE-----
MIID1DCCArygAwIBAgIQWR4cR7rTantcJ/Wm1rqsyjANBgkqhkiG9w0BAQwFADAZ
MRcwFQYDVQQDDA5NRiBWUE4gUm9vdCBDQTAgFw0yMDAxMjYxMTU3MTZaGA8yMTIw
MDEwMTExNTcxNlowIjEgMB4GA1UEAwwXTUYgVlBOIHJvdS16aCBDbGllbnQgQ0Ew
ggEiMA0GCSqGSIb3DQEBAQUAA4IBDwAwggEKAoIBAQChBqJTpMIs0SPUfiM5Ikdf
DpOGoAZlQs0MRu0LRLx3hrH/O2EEXSURjCv2TgnjvWq8xYonmysnzBLwXJNUYda2
S9Z6FouoEHdLxYCftbiYlgqRpFRsS6NRs6aiIUpbLVe8PF7Kks8Yac6UIal5bgGH
DnNRURMilDJfQVXd1f13/cZoL6OZ51FzfWho0rqNn7m04cve682w6M2RdSOtYVRp
HOd/3xCZQa6Ovlh5qx7TRIuE63nHFtoBN8fnhOyONlEX9Y4G1RDDisIJOiqA8Bki
3sOQ6rLAg6CUdyzqtEZXX5WevevZyEA2ggDq8/eg5WbA/qi2Ddv/FTFgC6bakiMP
AgMBAAGjggELMIIBBzA/BggrBgEFBQcBAQQzMDEwLwYIKwYBBQUHMAKGI2h0dHA6
Ly9wa2kubWF4Zi5kZXYvbWZfdnBuX3Jvb3QucGVtMDQGA1UdHwQtMCswKaAnoCWG
I2h0dHA6Ly9wa2kubWF4Zi5kZXYvbWZfdnBuX3Jvb3QuY3JsMAwGA1UdEwQFMAMB
Af8wHQYDVR0OBBYEFGqZzVTBnhonkSgeawH5o6RVpu5VMFQGA1UdIwRNMEuAFIeG
HudF7S0Ruu4OcLNSTePxIe/ooR2kGzAZMRcwFQYDVQQDDA5NRiBWUE4gUm9vdCBD
QYIUeKdaQzx+Ybo9AWirIvepzNLuTwcwCwYDVR0PBAQDAgEGMA0GCSqGSIb3DQEB
DAUAA4IBAQAMa19XpwtAh9Vx1zqBsobP82a8xoW1APlRN6e5+zodVmBzHQrTlj5Q
jUw1WdbeLAlyOfArzKlfovwZzzQ0KM2L36/kvsB49qUQbew+/gbAibQtenPD2aO8
mCC98JJo5Nawt0Op05tVdmAoj0xB+5ZiYBbTG9nT4VzhlCegWZPz8k4rUEqtduY7
qzsqgUAvhOFVqTM23vgx2Qo8zdavhKSKbG5oUkQHocb+zEpSDu69dKLZKnoxKV18
dIBykfzp9nRb5gYwEoFUT794ky9YlSnzHq0MjsplcaOIo41UEtwzECm2PtTGXRQB
rUeHc8ySVaArFuarnsX9xYjZBjq1mvjR
-----END CERTIFICATE-----
